target datalayout = "e-m:e-p270:32:32-p271:32:32-p272:64:64-i64:64-i128:128-f80:128-n8:16:32:64-S128"
target triple = "x86_64-pc-linux-gnu"

%"class.llvm::TargetRegisterClass" = type { ptr, ptr, ptr, %"struct.llvm::LaneBitmask", i8, i8, i8, i8, i8, ptr, ptr }
%"struct.llvm::LaneBitmask" = type { i64 }
%"class.llvm::LLT" = type { i64 }
%"class.llvm::RegisterBankInfo" = type { ptr, ptr, i32, ptr, i32, [4 x i8], %"class.llvm::DenseMap", %"class.llvm::DenseMap.0", %"class.llvm::DenseMap.3", %"class.llvm::DenseMap.6", %"class.llvm::DenseMap.9" }
%"class.llvm::DenseMap" = type <{ ptr, i32, i32, i32, [4 x i8] }>
%"class.llvm::DenseMap.0" = type <{ ptr, i32, i32, i32, [4 x i8] }>
%"class.llvm::DenseMap.3" = type <{ ptr, i32, i32, i32, [4 x i8] }>
%"class.llvm::DenseMap.6" = type <{ ptr, i32, i32, i32, [4 x i8] }>
%"class.llvm::DenseMap.9" = type <{ ptr, i32, i32, i32, [4 x i8] }>
%"class.llvm::MCRegisterClass" = type { ptr, ptr, i32, i16, i16, i16, i16, i8, i8, i8 }

; Function Attrs: mustprogress nounwind uwtable
define linkonce_odr hidden noundef nonnull align 8 dereferenceable(24) ptr @_ZN4llvm16RegisterBankInfo10getRegBankEj(ptr noundef nonnull align 8 dereferenceable(160) %0, i32 noundef %1) #0 comdat align 2 {
  %3 = alloca ptr, align 8
  %4 = alloca i32, align 4
  store ptr %0, ptr %3, align 8
  store i32 %1, ptr %4, align 4
  %5 = load ptr, ptr %3, align 8
  %6 = getelementptr inbounds nuw %"class.llvm::RegisterBankInfo", ptr %5, i32 0, i32 1
  %7 = load ptr, ptr %6, align 8
  %8 = load i32, ptr %4, align 4
  %9 = zext i32 %8 to i64
  %10 = getelementptr inbounds ptr, ptr %7, i64 %9
  %11 = load ptr, ptr %10, align 8
  ret ptr %11
}

; Function Attrs: mustprogress nounwind uwtable
define linkonce_odr hidden noundef i32 @_ZNK4llvm15MCRegisterClass5getIDEv(ptr noundef nonnull align 8 dereferenceable(32) %0) #0 comdat align 2 {
  %2 = alloca ptr, align 8
  store ptr %0, ptr %2, align 8
  %3 = load ptr, ptr %2, align 8
  %4 = getelementptr inbounds nuw %"class.llvm::MCRegisterClass", ptr %3, i32 0, i32 5
  %5 = load i16, ptr %4, align 8
  %6 = zext i16 %5 to i32
  ret i32 %6
}

; Function Attrs: mustprogress nounwind uwtable
define linkonce_odr hidden noundef nonnull align 8 dereferenceable(24) ptr @_ZNK4llvm16RegisterBankInfo10getRegBankEj(ptr noundef nonnull align 8 dereferenceable(160) %0, i32 noundef %1) #0 comdat align 2 {
  %3 = alloca ptr, align 8
  %4 = alloca i32, align 4
  store ptr %0, ptr %3, align 8
  store i32 %1, ptr %4, align 4
  %5 = load ptr, ptr %3, align 8
  %6 = load i32, ptr %4, align 4
  %7 = call noundef nonnull align 8 dereferenceable(24) ptr @_ZN4llvm16RegisterBankInfo10getRegBankEj(ptr noundef nonnull align 8 dereferenceable(160) %5, i32 noundef %6)
  ret ptr %7
}

; Function Attrs: mustprogress nounwind uwtable
define linkonce_odr hidden noundef i32 @_ZNK4llvm19TargetRegisterClass5getIDEv(ptr noundef nonnull align 8 dereferenceable(56) %0) #0 comdat align 2 {
  %2 = alloca ptr, align 8
  store ptr %0, ptr %2, align 8
  %3 = load ptr, ptr %2, align 8
  %4 = getelementptr inbounds nuw %"class.llvm::TargetRegisterClass", ptr %3, i32 0, i32 0
  %5 = load ptr, ptr %4, align 8
  %6 = call noundef i32 @_ZNK4llvm15MCRegisterClass5getIDEv(ptr noundef nonnull align 8 dereferenceable(32) %5)
  ret i32 %6
}

; Function Attrs: mustprogress nounwind uwtable
define dso_local noundef nonnull align 8 dereferenceable(24) ptr @_ZNK4llvm26AArch64GenRegisterBankInfo22getRegBankFromRegClassERKNS_19TargetRegisterClassENS_3LLTE(ptr noundef nonnull align 8 dereferenceable(160) %0, ptr noundef nonnull align 8 dereferenceable(56) %1, i64 %2) unnamed_addr #0 align 2 {
  %4 = alloca %"class.llvm::LLT", align 8
  %5 = alloca ptr, align 8
  %6 = alloca ptr, align 8
  %7 = alloca i32, align 4
  %8 = alloca i32, align 4
  %9 = alloca i32, align 4
  %10 = getelementptr inbounds nuw %"class.llvm::LLT", ptr %4, i32 0, i32 0
  store i64 %2, ptr %10, align 8
  store ptr %0, ptr %5, align 8
  store ptr %1, ptr %6, align 8
  %11 = load ptr, ptr %5, align 8
  store i32 3, ptr %7, align 4
  %12 = load ptr, ptr %6, align 8
  %13 = call noundef i32 @_ZNK4llvm19TargetRegisterClass5getIDEv(ptr noundef nonnull align 8 dereferenceable(56) %12)
  store i32 %13, ptr %8, align 4
  %14 = load i32, ptr %8, align 4
  %15 = icmp ult i32 %14, 220
  br i1 %15, label %16, label %33

16:                                               ; preds = %3
  %17 = load i32, ptr %8, align 4
  %18 = udiv i32 %17, 16
  %19 = zext i32 %18 to i64
  %20 = getelementptr inbounds [14 x i32], ptr @_ZZNK4llvm26AArch64GenRegisterBankInfo22getRegBankFromRegClassERKNS_19TargetRegisterClassENS_3LLTEE16RegClass2RegBank, i64 0, i64 %19
  %21 = load i32, ptr %20, align 4
  %22 = load i32, ptr %8, align 4
  %23 = urem i32 %22, 16
  %24 = mul i32 %23, 2
  %25 = lshr i32 %21, %24
  %26 = and i32 %25, 3
  store i32 %26, ptr %9, align 4
  %27 = load i32, ptr %9, align 4
  %28 = icmp ne i32 %27, 3
  br i1 %28, label %29, label %32

29:                                               ; preds = %16
  %30 = load i32, ptr %9, align 4
  %31 = call noundef nonnull align 8 dereferenceable(24) ptr @_ZNK4llvm16RegisterBankInfo10getRegBankEj(ptr noundef nonnull align 8 dereferenceable(160) %11, i32 noundef %30)
  ret ptr %31

32:                                               ; preds = %16
  br label %33

33:                                               ; preds = %32, %3
  unreachable
}