; Function Attrs: mustprogress nofree norecurse nosync nounwind willreturn memory(read, inaccessiblemem: write) uwtable
define dso_local noundef nonnull align 8 dereferenceable(24) ptr @_ZNK4llvm26AArch64GenRegisterBankInfo22getRegBankFromRegClassERKNS_19TargetRegisterClassENS_3LLTE(ptr nocapture noundef nonnull readonly align 8 dereferenceable(160) %0, ptr nocapture noundef nonnull readonly align 8 dereferenceable(56) %1, i64 %2) unnamed_addr #2 align 2 {
  %4 = load ptr, ptr %1, align 8
  %5 = getelementptr inbounds nuw i8, ptr %4, i64 24
  %6 = load i16, ptr %5, align 8
  %7 = zext nneg i16 %6 to i32
  %8 = icmp ult i16 %6, 220
  tail call void @llvm.assume(i1 %8)
  %9 = lshr i32 %7, 4
  %10 = zext nneg i32 %9 to i64
  %11 = getelementptr inbounds [14 x i32], ptr @_ZZNK4llvm26AArch64GenRegisterBankInfo22getRegBankFromRegClassERKNS_19TargetRegisterClassENS_3LLTEE16RegClass2RegBank, i64 0, i64 %10
  %12 = load i32, ptr %11, align 4
  %13 = shl nuw nsw i32 %7, 1
  %14 = and i32 %13, 30
  %15 = lshr i32 %12, %14
  %16 = and i32 %15, 3
  %17 = icmp ne i32 %16, 3
  tail call void @llvm.assume(i1 %17)
  %18 = getelementptr inbounds nuw i8, ptr %0, i64 8
  %19 = load ptr, ptr %18, align 8
  %20 = zext nneg i32 %16 to i64
  %21 = getelementptr inbounds ptr, ptr %19, i64 %20
  %22 = load ptr, ptr %21, align 8
  ret ptr %22
}